GAS LISTING C:\Users\Artem\AppData\Local\Temp\ccYsrGOs.s 			page 1


   1               		.file	"lcd16x2.c"
   2               	__SP_H__ = 0x3e
   3               	__SP_L__ = 0x3d
   4               	__SREG__ = 0x3f
   5               	__tmp_reg__ = 0
   6               	__zero_reg__ = 1
   7               		.text
   8               	.Ltext0:
   9               		.cfi_sections	.debug_frame
  10               		.section	.text.LcdSendHfByte,"ax",@progbits
  11               		.type	LcdSendHfByte, @function
  12               	LcdSendHfByte:
  13               	.LFB14:
  14               		.file 1 "code/lib/lcd16x2.c"
  15               		.loc 1 102 0
  16               		.cfi_startproc
  17               	.LVL0:
  18               	/* prologue: function */
  19               	/* frame size = 0 */
  20               	/* stack size = 0 */
  21               	.L__stack_usage = 0
  22               		.loc 1 103 0
  23 0000 939A      		sbi 0x12,3
  24               		.loc 1 105 0
  25 0002 92B3      		in r25,0x12
  26               	.LVL1:
  27               		.loc 1 106 0
  28 0004 9F70      		andi r25,lo8(15)
  29               	.LVL2:
  30               		.loc 1 107 0
  31 0006 892B      		or r24,r25
  32               	.LVL3:
  33               		.loc 1 108 0
  34 0008 82BB      		out 0x12,r24
  35               		.loc 1 110 0
  36 000a 9398      		cbi 0x12,3
  37 000c 0895      		ret
  38               		.cfi_endproc
  39               	.LFE14:
  40               		.size	LcdSendHfByte, .-LcdSendHfByte
  41               		.section	.text.LcdSendHfCmd,"ax",@progbits
  42               		.type	LcdSendHfCmd, @function
  43               	LcdSendHfCmd:
  44               	.LFB11:
  45               		.loc 1 84 0
  46               		.cfi_startproc
  47               	.LVL4:
  48               	/* prologue: function */
  49               	/* frame size = 0 */
  50               	/* stack size = 0 */
  51               	.L__stack_usage = 0
  52               		.loc 1 85 0
  53 0000 9298      		cbi 0x12,2
  54               		.loc 1 86 0
  55 0002 0E94 0000 		call LcdSendHfByte
  56               	.LVL5:
  57 0006 0895      		ret
GAS LISTING C:\Users\Artem\AppData\Local\Temp\ccYsrGOs.s 			page 2


  58               		.cfi_endproc
  59               	.LFE11:
  60               		.size	LcdSendHfCmd, .-LcdSendHfCmd
  61               		.section	.text.LcdSendCmd,"ax",@progbits
  62               	.global	LcdSendCmd
  63               		.type	LcdSendCmd, @function
  64               	LcdSendCmd:
  65               	.LFB10:
  66               		.loc 1 78 0
  67               		.cfi_startproc
  68               	.LVL6:
  69 0000 CF93      		push r28
  70               	.LCFI0:
  71               		.cfi_def_cfa_offset 3
  72               		.cfi_offset 28, -2
  73               	/* prologue: function */
  74               	/* frame size = 0 */
  75               	/* stack size = 1 */
  76               	.L__stack_usage = 1
  77 0002 C82F      		mov r28,r24
  78               		.loc 1 79 0
  79 0004 9298      		cbi 0x12,2
  80               	.LVL7:
  81               	.LBB24:
  82               	.LBB25:
  83               		.loc 1 97 0
  84 0006 807F      		andi r24,lo8(-16)
  85               	.LVL8:
  86 0008 0E94 0000 		call LcdSendHfByte
  87               	.LVL9:
  88               		.loc 1 98 0
  89 000c 8C2F      		mov r24,r28
  90 000e 8295      		swap r24
  91 0010 807F      		andi r24,lo8(-16)
  92 0012 0E94 0000 		call LcdSendHfByte
  93               	.LVL10:
  94               	/* epilogue start */
  95               	.LBE25:
  96               	.LBE24:
  97               		.loc 1 81 0
  98 0016 CF91      		pop r28
  99               	.LVL11:
 100 0018 0895      		ret
 101               		.cfi_endproc
 102               	.LFE10:
 103               		.size	LcdSendCmd, .-LcdSendCmd
 104               		.section	.text.LcdInit,"ax",@progbits
 105               	.global	LcdInit
 106               		.type	LcdInit, @function
 107               	LcdInit:
 108               	.LFB6:
 109               		.loc 1 29 0
 110               		.cfi_startproc
 111               	/* prologue: function */
 112               	/* frame size = 0 */
 113               	/* stack size = 0 */
 114               	.L__stack_usage = 0
GAS LISTING C:\Users\Artem\AppData\Local\Temp\ccYsrGOs.s 			page 3


 115               		.loc 1 30 0
 116 0000 81B3      		in r24,0x11
 117 0002 8C6F      		ori r24,lo8(-4)
 118 0004 81BB      		out 0x11,r24
 119               	.LVL12:
 120               	.LBB26:
 121               	.LBB27:
 122               		.file 2 "c:\\toolchain\\avr8\\avr8-gnu-toolchain\\avr\\include\\util\\delay.h"
 123               		.loc 2 187 0
 124 0006 8FE2      		ldi r24,lo8(29999)
 125 0008 95E7      		ldi r25,hi8(29999)
 126 000a 0197      	1:	sbiw r24,1
 127 000c 01F4      		brne 1b
 128 000e 00C0      		rjmp .
 129 0010 0000      		nop
 130               	.LVL13:
 131               	.LBE27:
 132               	.LBE26:
 133               		.loc 1 32 0
 134 0012 80E3      		ldi r24,lo8(48)
 135 0014 0E94 0000 		call LcdSendHfCmd
 136               	.LVL14:
 137               	.LBB28:
 138               	.LBB29:
 139               		.loc 2 187 0
 140 0018 8FE0      		ldi r24,lo8(9999)
 141 001a 97E2      		ldi r25,hi8(9999)
 142 001c 0197      	1:	sbiw r24,1
 143 001e 01F4      		brne 1b
 144 0020 00C0      		rjmp .
 145 0022 0000      		nop
 146               	.LVL15:
 147               	.LBE29:
 148               	.LBE28:
 149               		.loc 1 34 0
 150 0024 80E3      		ldi r24,lo8(48)
 151 0026 0E94 0000 		call LcdSendHfCmd
 152               	.LVL16:
 153               	.LBB30:
 154               	.LBB31:
 155               		.loc 2 276 0
 156 002a 87EC      		ldi r24,lo8(199)
 157 002c 90E0      		ldi r25,hi8(199)
 158 002e 0197      	1:	sbiw r24,1
 159 0030 01F4      		brne 1b
 160 0032 00C0      		rjmp .
 161 0034 0000      		nop
 162               	.LVL17:
 163               	.LBE31:
 164               	.LBE30:
 165               		.loc 1 36 0
 166 0036 80E3      		ldi r24,lo8(48)
 167 0038 0E94 0000 		call LcdSendHfCmd
 168               	.LVL18:
 169               	.LBB32:
 170               	.LBB33:
 171               		.loc 2 276 0
GAS LISTING C:\Users\Artem\AppData\Local\Temp\ccYsrGOs.s 			page 4


 172 003c 95E8      		ldi r25,lo8(-123)
 173 003e 9A95      	1:	dec r25
 174 0040 01F4      		brne 1b
 175 0042 0000      		nop
 176               	.LVL19:
 177               	.LBE33:
 178               	.LBE32:
 179               		.loc 1 39 0
 180 0044 80E2      		ldi r24,lo8(32)
 181 0046 0E94 0000 		call LcdSendHfCmd
 182               	.LVL20:
 183               	.LBB34:
 184               	.LBB35:
 185               		.loc 2 276 0
 186 004a 85E8      		ldi r24,lo8(-123)
 187 004c 8A95      	1:	dec r24
 188 004e 01F4      		brne 1b
 189 0050 0000      		nop
 190               	.LVL21:
 191               	.LBE35:
 192               	.LBE34:
 193               		.loc 1 42 0
 194 0052 80E2      		ldi r24,lo8(32)
 195 0054 0E94 0000 		call LcdSendCmd
 196               	.LVL22:
 197               	.LBB36:
 198               	.LBB37:
 199               		.loc 2 276 0
 200 0058 95E8      		ldi r25,lo8(-123)
 201 005a 9A95      	1:	dec r25
 202 005c 01F4      		brne 1b
 203 005e 0000      		nop
 204               	.LVL23:
 205               	.LBE37:
 206               	.LBE36:
 207               		.loc 1 45 0
 208 0060 81E0      		ldi r24,lo8(1)
 209 0062 0E94 0000 		call LcdSendCmd
 210               	.LVL24:
 211               	.LBB38:
 212               	.LBB39:
 213               		.loc 2 187 0
 214 0066 8FE9      		ldi r24,lo8(3999)
 215 0068 9FE0      		ldi r25,hi8(3999)
 216 006a 0197      	1:	sbiw r24,1
 217 006c 01F4      		brne 1b
 218 006e 00C0      		rjmp .
 219 0070 0000      		nop
 220               	.LVL25:
 221               	.LBE39:
 222               	.LBE38:
 223               	.LBB40:
 224               	.LBB41:
 225               		.loc 2 276 0
 226 0072 95E8      		ldi r25,lo8(-123)
 227 0074 9A95      	1:	dec r25
 228 0076 01F4      		brne 1b
GAS LISTING C:\Users\Artem\AppData\Local\Temp\ccYsrGOs.s 			page 5


 229 0078 0000      		nop
 230               	.LVL26:
 231               	.LBE41:
 232               	.LBE40:
 233               		.loc 1 49 0
 234 007a 8CE0      		ldi r24,lo8(12)
 235 007c 0E94 0000 		call LcdSendCmd
 236               	.LVL27:
 237 0080 0895      		ret
 238               		.cfi_endproc
 239               	.LFE6:
 240               		.size	LcdInit, .-LcdInit
 241               		.section	.text.LcdMovCursor,"ax",@progbits
 242               	.global	LcdMovCursor
 243               		.type	LcdMovCursor, @function
 244               	LcdMovCursor:
 245               	.LFB9:
 246               		.loc 1 72 0
 247               		.cfi_startproc
 248               	.LVL28:
 249               	/* prologue: function */
 250               	/* frame size = 0 */
 251               	/* stack size = 0 */
 252               	.L__stack_usage = 0
 253               		.loc 1 74 0
 254 0000 8068      		ori r24,lo8(-128)
 255               	.LVL29:
 256 0002 0E94 0000 		call LcdSendCmd
 257               	.LVL30:
 258 0006 0895      		ret
 259               		.cfi_endproc
 260               	.LFE9:
 261               		.size	LcdMovCursor, .-LcdMovCursor
 262               		.section	.text.LcdSendData,"ax",@progbits
 263               	.global	LcdSendData
 264               		.type	LcdSendData, @function
 265               	LcdSendData:
 266               	.LFB12:
 267               		.loc 1 90 0
 268               		.cfi_startproc
 269               	.LVL31:
 270 0000 CF93      		push r28
 271               	.LCFI1:
 272               		.cfi_def_cfa_offset 3
 273               		.cfi_offset 28, -2
 274               	/* prologue: function */
 275               	/* frame size = 0 */
 276               	/* stack size = 1 */
 277               	.L__stack_usage = 1
 278 0002 C82F      		mov r28,r24
 279               		.loc 1 91 0
 280 0004 929A      		sbi 0x12,2
 281               	.LVL32:
 282               	.LBB44:
 283               	.LBB45:
 284               		.loc 1 97 0
 285 0006 807F      		andi r24,lo8(-16)
GAS LISTING C:\Users\Artem\AppData\Local\Temp\ccYsrGOs.s 			page 6


 286               	.LVL33:
 287 0008 0E94 0000 		call LcdSendHfByte
 288               	.LVL34:
 289               		.loc 1 98 0
 290 000c 8C2F      		mov r24,r28
 291 000e 8295      		swap r24
 292 0010 807F      		andi r24,lo8(-16)
 293 0012 0E94 0000 		call LcdSendHfByte
 294               	.LVL35:
 295               	/* epilogue start */
 296               	.LBE45:
 297               	.LBE44:
 298               		.loc 1 93 0
 299 0016 CF91      		pop r28
 300               	.LVL36:
 301 0018 0895      		ret
 302               		.cfi_endproc
 303               	.LFE12:
 304               		.size	LcdSendData, .-LcdSendData
 305               		.section	.text.LcdDispBuf,"ax",@progbits
 306               	.global	LcdDispBuf
 307               		.type	LcdDispBuf, @function
 308               	LcdDispBuf:
 309               	.LFB7:
 310               		.loc 1 53 0
 311               		.cfi_startproc
 312               	.LVL37:
 313 0000 0F93      		push r16
 314               	.LCFI2:
 315               		.cfi_def_cfa_offset 3
 316               		.cfi_offset 16, -2
 317 0002 1F93      		push r17
 318               	.LCFI3:
 319               		.cfi_def_cfa_offset 4
 320               		.cfi_offset 17, -3
 321 0004 CF93      		push r28
 322               	.LCFI4:
 323               		.cfi_def_cfa_offset 5
 324               		.cfi_offset 28, -4
 325 0006 DF93      		push r29
 326               	.LCFI5:
 327               		.cfi_def_cfa_offset 6
 328               		.cfi_offset 29, -5
 329               	/* prologue: function */
 330               	/* frame size = 0 */
 331               	/* stack size = 4 */
 332               	.L__stack_usage = 4
 333               		.loc 1 54 0
 334 0008 4FEF      		ldi r20,lo8(-1)
 335 000a 460F      		add r20,r22
 336               	.LVL38:
 337 000c 6623      		tst r22
 338 000e 01F0      		breq .L7
 339 0010 EC01      		movw r28,r24
 340 0012 042F      		mov r16,r20
 341 0014 10E0      		ldi r17,0
 342 0016 0F5F      		subi r16,-1
GAS LISTING C:\Users\Artem\AppData\Local\Temp\ccYsrGOs.s 			page 7


 343 0018 1F4F      		sbci r17,-1
 344 001a 080F      		add r16,r24
 345 001c 191F      		adc r17,r25
 346               	.LVL39:
 347               	.L9:
 348               	.LBB46:
 349               	.LBB47:
 350               		.loc 2 276 0
 351 001e 85E8      		ldi r24,lo8(-123)
 352 0020 8A95      	1:	dec r24
 353 0022 01F4      		brne 1b
 354 0024 0000      		nop
 355               	.LVL40:
 356               	.LBE47:
 357               	.LBE46:
 358               		.loc 1 57 0
 359 0026 8991      		ld r24,Y+
 360               	.LVL41:
 361 0028 0E94 0000 		call LcdSendData
 362               	.LVL42:
 363               		.loc 1 54 0
 364 002c C017      		cp r28,r16
 365 002e D107      		cpc r29,r17
 366 0030 01F4      		brne .L9
 367               	.LVL43:
 368               	.L7:
 369               	/* epilogue start */
 370               		.loc 1 59 0
 371 0032 DF91      		pop r29
 372 0034 CF91      		pop r28
 373 0036 1F91      		pop r17
 374 0038 0F91      		pop r16
 375 003a 0895      		ret
 376               		.cfi_endproc
 377               	.LFE7:
 378               		.size	LcdDispBuf, .-LcdDispBuf
 379               		.section	.text.LcdDispStr,"ax",@progbits
 380               	.global	LcdDispStr
 381               		.type	LcdDispStr, @function
 382               	LcdDispStr:
 383               	.LFB8:
 384               		.loc 1 62 0
 385               		.cfi_startproc
 386               	.LVL44:
 387 0000 CF93      		push r28
 388               	.LCFI6:
 389               		.cfi_def_cfa_offset 3
 390               		.cfi_offset 28, -2
 391 0002 DF93      		push r29
 392               	.LCFI7:
 393               		.cfi_def_cfa_offset 4
 394               		.cfi_offset 29, -3
 395               	/* prologue: function */
 396               	/* frame size = 0 */
 397               	/* stack size = 2 */
 398               	.L__stack_usage = 2
 399               		.loc 1 63 0
GAS LISTING C:\Users\Artem\AppData\Local\Temp\ccYsrGOs.s 			page 8


 400 0004 FC01      		movw r30,r24
 401 0006 2081      		ld r18,Z
 402 0008 2223      		tst r18
 403 000a 01F0      		breq .L11
 404 000c EC01      		movw r28,r24
 405               	.LVL45:
 406               	.L13:
 407               	.LBB48:
 408               	.LBB49:
 409               		.loc 2 276 0
 410 000e F5E8      		ldi r31,lo8(-123)
 411 0010 FA95      	1:	dec r31
 412 0012 01F4      		brne 1b
 413 0014 0000      		nop
 414               	.LVL46:
 415               	.LBE49:
 416               	.LBE48:
 417               		.loc 1 66 0
 418 0016 8991      		ld r24,Y+
 419               	.LVL47:
 420 0018 0E94 0000 		call LcdSendData
 421               	.LVL48:
 422               		.loc 1 63 0
 423 001c 8881      		ld r24,Y
 424 001e 8111      		cpse r24,__zero_reg__
 425 0020 00C0      		rjmp .L13
 426               	.LVL49:
 427               	.L11:
 428               	/* epilogue start */
 429               		.loc 1 69 0
 430 0022 DF91      		pop r29
 431 0024 CF91      		pop r28
 432 0026 0895      		ret
 433               		.cfi_endproc
 434               	.LFE8:
 435               		.size	LcdDispStr, .-LcdDispStr
 436               		.text
 437               	.Letext0:
 438               		.file 3 "c:\\toolchain\\avr8\\avr8-gnu-toolchain\\avr\\include\\stdint.h"